target datalayout = "e-m:e-p270:32:32-p271:32:32-p272:64:64-i64:64-i128:128-f80:128-n8:16:32:64-S128"
target triple = "x86_64-pc-linux-gnu"

%"class.llvm::cl::opt" = type { %"class.llvm::cl::Option", %"class.llvm::cl::opt_storage", %"class.llvm::cl::parser", %"class.std::function" }
%"class.llvm::cl::Option" = type { ptr, i16, i16, i16, i16, %"class.llvm::StringRef", %"class.llvm::StringRef", %"class.llvm::StringRef", %"class.llvm::SmallVector", %"class.llvm::SmallPtrSet" }
%"class.llvm::StringRef" = type { ptr, i64 }
%"class.llvm::SmallVector" = type { %"class.llvm::SmallVectorImpl", %"struct.llvm::SmallVectorStorage" }
%"class.llvm::SmallVectorImpl" = type { %"class.llvm::SmallVectorTemplateBase" }
%"class.llvm::SmallVectorTemplateBase" = type { %"class.llvm::SmallVectorTemplateCommon" }
%"class.llvm::SmallVectorTemplateCommon" = type { %"class.llvm::SmallVectorBase" }
%"class.llvm::SmallVectorBase" = type { ptr, i32, i32 }
%"struct.llvm::SmallVectorStorage" = type { [8 x i8] }
%"class.llvm::SmallPtrSet" = type { %"class.llvm::SmallPtrSetImpl.base", [1 x ptr] }
%"class.llvm::SmallPtrSetImpl.base" = type { %"class.llvm::SmallPtrSetImplBase.base" }
%"class.llvm::SmallPtrSetImplBase.base" = type <{ ptr, ptr, i32, i32, i32 }>
%"class.llvm::cl::opt_storage" = type { i8, [7 x i8], %"struct.llvm::cl::OptionValue" }
%"struct.llvm::cl::OptionValue" = type { %"struct.llvm::cl::OptionValueBase.base", [6 x i8] }
%"struct.llvm::cl::OptionValueBase.base" = type { %"class.llvm::cl::OptionValueCopy.base" }
%"class.llvm::cl::OptionValueCopy.base" = type <{ %"struct.llvm::cl::GenericOptionValue", i8, i8 }>
%"struct.llvm::cl::GenericOptionValue" = type { ptr }
%"class.llvm::cl::parser" = type { %"class.llvm::cl::basic_parser" }
%"class.llvm::cl::basic_parser" = type { %"class.llvm::cl::basic_parser_impl" }
%"class.llvm::cl::basic_parser_impl" = type { ptr }
%"class.std::function" = type { %"class.std::_Function_base", ptr }
%"class.std::_Function_base" = type { %"union.std::_Any_data", ptr }
%"union.std::_Any_data" = type { %"union.std::_Nocopy_types" }
%"union.std::_Nocopy_types" = type { { i64, i64 } }
%"class.std::__cxx11::basic_string" = type { %"struct.std::__cxx11::basic_string<char>::_Alloc_hider", i64, %union.anon }
%"struct.std::__cxx11::basic_string<char>::_Alloc_hider" = type { ptr }
%union.anon = type { i64, [8 x i8] }
%"class.llvm::TargetPassConfig" = type <{ %"class.llvm::ImmutablePass.base", [4 x i8], ptr, ptr, ptr, ptr, ptr, i32, i32, i32, i32, i32, i32, i32, i32, i8, i8, i8, i8, [4 x i8], ptr, ptr, i8, i8, i8, i8, i8, i8, [2 x i8] }>
%"class.llvm::ImmutablePass.base" = type { %"class.llvm::ModulePass.base" }
%"class.llvm::ModulePass.base" = type { %"class.llvm::Pass.base" }
%"class.llvm::Pass.base" = type <{ ptr, ptr, ptr, i32 }>
%"class.llvm::TargetMachine" = type { ptr, ptr, %"class.llvm::DataLayout", %"class.llvm::Triple", %"class.std::__cxx11::basic_string", %"class.std::__cxx11::basic_string", i32, i32, i64, i32, %"class.std::unique_ptr", %"class.std::unique_ptr.158", %"class.std::unique_ptr.166", %"class.std::unique_ptr.174", i8, [7 x i8], %"class.std::optional.182", %"class.llvm::TargetOptions" }
%"class.llvm::DataLayout" = type { i8, i32, i32, i32, %"struct.llvm::MaybeAlign", %"struct.llvm::MaybeAlign", i32, i32, %"class.llvm::SmallVector.128", %"class.llvm::SmallVector.134", %"class.llvm::SmallVector.139", %"class.llvm::SmallVector.141", %"class.llvm::SmallVector.143", %"class.std::__cxx11::basic_string", %"struct.llvm::Align", %"struct.llvm::Align", ptr, %"class.llvm::SmallVector.148" }
%"struct.llvm::MaybeAlign" = type { %"class.std::optional.122" }
%"class.std::optional.122" = type { %"struct.std::_Optional_base.123" }
%"struct.std::_Optional_base.123" = type { %"struct.std::_Optional_payload.125" }
%"struct.std::_Optional_payload.125" = type { %"struct.std::_Optional_payload_base.126" }
%"struct.std::_Optional_payload_base.126" = type { %"union.std::_Optional_payload_base<llvm::Align>::_Storage", i8 }
%"union.std::_Optional_payload_base<llvm::Align>::_Storage" = type { %"struct.std::_Optional_payload_base<llvm::Align>::_Empty_byte" }
%"struct.std::_Optional_payload_base<llvm::Align>::_Empty_byte" = type { i8 }
%"class.llvm::SmallVector.128" = type { %"class.llvm::SmallVectorImpl.129", %"struct.llvm::SmallVectorStorage.133" }
%"class.llvm::SmallVectorImpl.129" = type { %"class.llvm::SmallVectorTemplateBase.130" }
%"class.llvm::SmallVectorTemplateBase.130" = type { %"class.llvm::SmallVectorTemplateCommon.131" }
%"class.llvm::SmallVectorTemplateCommon.131" = type { %"class.llvm::SmallVectorBase.132" }
%"class.llvm::SmallVectorBase.132" = type { ptr, i64, i64 }
%"struct.llvm::SmallVectorStorage.133" = type { [8 x i8] }
%"class.llvm::SmallVector.134" = type { %"class.llvm::SmallVectorImpl.135", %"struct.llvm::SmallVectorStorage.138" }
%"class.llvm::SmallVectorImpl.135" = type { %"class.llvm::SmallVectorTemplateBase.136" }
%"class.llvm::SmallVectorTemplateBase.136" = type { %"class.llvm::SmallVectorTemplateCommon.137" }
%"class.llvm::SmallVectorTemplateCommon.137" = type { %"class.llvm::SmallVectorBase" }
%"struct.llvm::SmallVectorStorage.138" = type { [48 x i8] }
%"class.llvm::SmallVector.139" = type { %"class.llvm::SmallVectorImpl.135", %"struct.llvm::SmallVectorStorage.140" }
%"struct.llvm::SmallVectorStorage.140" = type { [32 x i8] }
%"class.llvm::SmallVector.141" = type { %"class.llvm::SmallVectorImpl.135", %"struct.llvm::SmallVectorStorage.142" }
%"struct.llvm::SmallVectorStorage.142" = type { [80 x i8] }
%"class.llvm::SmallVector.143" = type { %"class.llvm::SmallVectorImpl.144", %"struct.llvm::SmallVectorStorage.147" }
%"class.llvm::SmallVectorImpl.144" = type { %"class.llvm::SmallVectorTemplateBase.145" }
%"class.llvm::SmallVectorTemplateBase.145" = type { %"class.llvm::SmallVectorTemplateCommon.146" }
%"class.llvm::SmallVectorTemplateCommon.146" = type { %"class.llvm::SmallVectorBase" }
%"struct.llvm::SmallVectorStorage.147" = type { [128 x i8] }
%"struct.llvm::Align" = type { i8 }
%"class.llvm::SmallVector.148" = type { %"class.llvm::SmallVectorImpl.149", %"struct.llvm::SmallVectorStorage.152" }
%"class.llvm::SmallVectorImpl.149" = type { %"class.llvm::SmallVectorTemplateBase.150" }
%"class.llvm::SmallVectorTemplateBase.150" = type { %"class.llvm::SmallVectorTemplateCommon.151" }
%"class.llvm::SmallVectorTemplateCommon.151" = type { %"class.llvm::SmallVectorBase" }
%"struct.llvm::SmallVectorStorage.152" = type { [32 x i8] }
%"class.llvm::Triple" = type { %"class.std::__cxx11::basic_string", i32, i32, i32, i32, i32, i32 }
%"class.std::unique_ptr" = type { %"struct.std::__uniq_ptr_data" }
%"struct.std::__uniq_ptr_data" = type { %"class.std::__uniq_ptr_impl" }
%"class.std::__uniq_ptr_impl" = type { %"class.std::tuple.153" }
%"class.std::tuple.153" = type { %"struct.std::_Tuple_impl.154" }
%"struct.std::_Tuple_impl.154" = type { %"struct.std::_Head_base.157" }
%"struct.std::_Head_base.157" = type { ptr }
%"class.std::unique_ptr.158" = type { %"struct.std::__uniq_ptr_data.159" }
%"struct.std::__uniq_ptr_data.159" = type { %"class.std::__uniq_ptr_impl.160" }
%"class.std::__uniq_ptr_impl.160" = type { %"class.std::tuple.161" }
%"class.std::tuple.161" = type { %"struct.std::_Tuple_impl.162" }
%"struct.std::_Tuple_impl.162" = type { %"struct.std::_Head_base.165" }
%"struct.std::_Head_base.165" = type { ptr }
%"class.std::unique_ptr.166" = type { %"struct.std::__uniq_ptr_data.167" }
%"struct.std::__uniq_ptr_data.167" = type { %"class.std::__uniq_ptr_impl.168" }
%"class.std::__uniq_ptr_impl.168" = type { %"class.std::tuple.169" }
%"class.std::tuple.169" = type { %"struct.std::_Tuple_impl.170" }
%"struct.std::_Tuple_impl.170" = type { %"struct.std::_Head_base.173" }
%"struct.std::_Head_base.173" = type { ptr }
%"class.std::unique_ptr.174" = type { %"struct.std::__uniq_ptr_data.175" }
%"struct.std::__uniq_ptr_data.175" = type { %"class.std::__uniq_ptr_impl.176" }
%"class.std::__uniq_ptr_impl.176" = type { %"class.std::tuple.177" }
%"class.std::tuple.177" = type { %"struct.std::_Tuple_impl.178" }
%"struct.std::_Tuple_impl.178" = type { %"struct.std::_Head_base.181" }
%"struct.std::_Head_base.181" = type { ptr }
%"class.std::optional.182" = type { %"struct.std::_Optional_base.183" }
%"struct.std::_Optional_base.183" = type { %"struct.std::_Optional_payload.185" }
%"struct.std::_Optional_payload.185" = type { %"struct.std::_Optional_payload.base.189", [7 x i8] }
%"struct.std::_Optional_payload.base.189" = type { %"struct.std::_Optional_payload_base.base.188" }
%"struct.std::_Optional_payload_base.base.188" = type <{ %"union.std::_Optional_payload_base<llvm::PGOOptions>::_Storage", i8 }>
%"union.std::_Optional_payload_base<llvm::PGOOptions>::_Storage" = type { %"struct.llvm::PGOOptions" }
%"struct.llvm::PGOOptions" = type { %"class.std::__cxx11::basic_string", %"class.std::__cxx11::basic_string", %"class.std::__cxx11::basic_string", %"class.std::__cxx11::basic_string", i32, i32, i32, i8, i8, i8, %"class.llvm::IntrusiveRefCntPtr" }
%"class.llvm::IntrusiveRefCntPtr" = type { ptr }
%"class.llvm::TargetOptions" = type { %"struct.std::pair.192", i16, i32, i32, i32, i32, %"class.std::shared_ptr", i16, %"class.std::__cxx11::basic_string", i32, i32, i32, i32, i32, i32, %"struct.llvm::DenormalMode", %"struct.llvm::DenormalMode", i32, %"class.llvm::MCTargetOptions", %"class.std::__cxx11::basic_string" }
%"struct.std::pair.192" = type { i32, i32 }
%"class.std::shared_ptr" = type { %"class.std::__shared_ptr" }
%"class.std::__shared_ptr" = type { ptr, %"class.std::__shared_count" }
%"class.std::__shared_count" = type { ptr }
%"struct.llvm::DenormalMode" = type { i8, i8 }
%"class.llvm::MCTargetOptions" = type <{ i16, i8, i8, i8, i8, [2 x i8], i32, i32, i32, i32, %"class.std::__cxx11::basic_string", %"class.std::__cxx11::basic_string", %"class.std::__cxx11::basic_string", %"class.std::__cxx11::basic_string", ptr, %"class.llvm::ArrayRef", %"class.std::vector.194", i8, [7 x i8] }>
%"class.llvm::ArrayRef" = type { ptr, i64 }
%"class.std::vector.194" = type { %"struct.std::_Vector_base.195" }
%"struct.std::_Vector_base.195" = type { %"struct.std::_Vector_base<std::__cxx11::basic_string<char>, std::allocator<std::__cxx11::basic_string<char>>>::_Vector_impl" }
%"struct.std::_Vector_base<std::__cxx11::basic_string<char>, std::allocator<std::__cxx11::basic_string<char>>>::_Vector_impl" = type { %"struct.std::_Vector_base<std::__cxx11::basic_string<char>, std::allocator<std::__cxx11::basic_string<char>>>::_Vector_impl_data" }
%"struct.std::_Vector_base<std::__cxx11::basic_string<char>, std::allocator<std::__cxx11::basic_string<char>>>::_Vector_impl_data" = type { ptr, ptr, ptr }

@_ZL10DisableCGP = internal global %"class.llvm::cl::opt" zeroinitializer, align 8

; Function Attrs: mustprogress nounwind uwtable
define linkonce_odr hidden noundef zeroext i1 @_ZNK4llvm2cl11opt_storageIbLb0ELb0EE8getValueEv(ptr noundef nonnull align 8 dereferenceable(24) %0) #1 comdat align 2 {
  %2 = alloca ptr, align 8
  store ptr %0, ptr %2, align 8
  %3 = load ptr, ptr %2, align 8
  %4 = getelementptr inbounds nuw %"class.llvm::cl::opt_storage", ptr %3, i32 0, i32 0
  %5 = load i8, ptr %4, align 8
  %6 = trunc i8 %5 to i1
  ret i1 %6
}

; Function Attrs: mustprogress nounwind uwtable
define linkonce_odr hidden noundef i32 @_ZNK4llvm13TargetMachine11getOptLevelEv(ptr noundef nonnull align 8 dereferenceable(1232) %0) #1 comdat align 2 {
  %2 = alloca ptr, align 8
  store ptr %0, ptr %2, align 8
  %3 = load ptr, ptr %2, align 8
  %4 = getelementptr inbounds nuw %"class.llvm::TargetMachine", ptr %3, i32 0, i32 9
  %5 = load i32, ptr %4, align 8
  ret i32 %5
}

; Function Attrs: mustprogress nounwind uwtable
define linkonce_odr hidden noundef zeroext i1 @_ZNK4llvm2cl11opt_storageIbLb0ELb0EEcvbEv(ptr noundef nonnull align 8 dereferenceable(24) %0) #1 comdat align 2 {
  %2 = alloca ptr, align 8
  store ptr %0, ptr %2, align 8
  %3 = load ptr, ptr %2, align 8
  %4 = call noundef zeroext i1 @_ZNK4llvm2cl11opt_storageIbLb0ELb0EE8getValueEv(ptr noundef nonnull align 8 dereferenceable(24) %3)
  ret i1 %4
}

; Function Attrs: mustprogress nounwind uwtable
define dso_local noundef i32 @_ZNK4llvm16TargetPassConfig11getOptLevelEv(ptr noundef nonnull align 8 dereferenceable(134) %0) #1 align 2 {
  %2 = alloca ptr, align 8
  store ptr %0, ptr %2, align 8
  %3 = load ptr, ptr %2, align 8
  %4 = getelementptr inbounds nuw %"class.llvm::TargetPassConfig", ptr %3, i32 0, i32 20
  %5 = load ptr, ptr %4, align 8
  %6 = call noundef i32 @_ZNK4llvm13TargetMachine11getOptLevelEv(ptr noundef nonnull align 8 dereferenceable(1232) %5)
  ret i32 %6
}

; Function Attrs: mustprogress nounwind uwtable
define dso_local void @_ZN4llvm16TargetPassConfig17addCodeGenPrepareEv(ptr noundef nonnull align 8 dereferenceable(134) %0) unnamed_addr #1 align 2 {
  %2 = alloca ptr, align 8
  store ptr %0, ptr %2, align 8
  %3 = load ptr, ptr %2, align 8
  %4 = call noundef i32 @_ZNK4llvm16TargetPassConfig11getOptLevelEv(ptr noundef nonnull align 8 dereferenceable(134) %3)
  %5 = icmp ne i32 %4, 0
  br i1 %5, label %6, label %10

6:                                                ; preds = %1
  %7 = call noundef zeroext i1 @_ZNK4llvm2cl11opt_storageIbLb0ELb0EEcvbEv(ptr noundef nonnull align 8 dereferenceable(24) getelementptr inbounds (i8, ptr @_ZL10DisableCGP, i64 128))
  br i1 %7, label %10, label %8

8:                                                ; preds = %6
  %9 = call noundef ptr @_ZN4llvm30createCodeGenPrepareLegacyPassEv()
  call void @_ZN4llvm16TargetPassConfig7addPassEPNS_4PassE(ptr noundef nonnull align 8 dereferenceable(134) %3, ptr noundef %9)
  br label %10

10:                                               ; preds = %8, %6, %1
  ret void
}